target datalayout = "e-m:e-p270:32:32-p271:32:32-p272:64:64-i64:64-i128:128-f80:128-n8:16:32:64-S128"
target triple = "x86_64-unknown-linux-gnu"

%"class.v8::IndirectHandleBase" = type { ptr }
%"class.std::unique_ptr.306" = type { %"struct.std::__uniq_ptr_data.307" }
%"struct.std::__uniq_ptr_data.307" = type { %"class.std::__uniq_ptr_impl.308" }
%"class.std::__uniq_ptr_impl.308" = type { %"class.std::tuple.309" }
%"class.std::tuple.309" = type { %"struct.std::_Tuple_impl.310" }
%"struct.std::_Tuple_impl.310" = type { %"struct.std::_Head_base.313" }
%"struct.std::_Head_base.313" = type { ptr }
%"class.node::MemoryRetainer" = type { ptr }
%"class.node::contextify::ContextifyContext" = type { %"class.node::BaseObject", %"class.v8::Global.320", %"class.std::unique_ptr.306" }
%"class.node::BaseObject" = type { %"class.node::MemoryRetainer", %"class.v8::Global.318", ptr, ptr }
%"class.v8::Global.318" = type { %"class.v8::PersistentBase.319" }
%"class.v8::PersistentBase.319" = type { %"class.v8::IndirectHandleBase" }
%"class.v8::Global.320" = type { %"class.v8::PersistentBase.321" }
%"class.v8::PersistentBase.321" = type { %"class.v8::IndirectHandleBase" }

; Function Attrs: mustprogress nounwind uwtable
define dso_local noundef zeroext i1 @_ZN4node10contextify17ContextifyContext19IsStillInitializingEPKS1_(ptr noundef %ctx) #4 align 2 {
entry:
  %this.addr.i = alloca ptr, align 8
  %ctx.addr = alloca ptr, align 8
  store ptr %ctx, ptr %ctx.addr, align 8
  %0 = load ptr, ptr %ctx.addr, align 8
  %cmp = icmp eq ptr %0, null
  br i1 %cmp, label %lor.end, label %lor.rhs

lor.rhs:                                          ; preds = %entry
  %1 = load ptr, ptr %ctx.addr, align 8
  %context_ = getelementptr inbounds %"class.node::contextify::ContextifyContext", ptr %1, i32 0, i32 1
  store ptr %context_, ptr %this.addr.i, align 8
  %this1.i = load ptr, ptr %this.addr.i, align 8
  %2 = load ptr, ptr %this1.i, align 8
  %cmp.i = icmp eq ptr %2, null
  br label %lor.end

lor.end:                                          ; preds = %lor.rhs, %entry
  %3 = phi i1 [ true, %entry ], [ %cmp.i, %lor.rhs ]
  ret i1 %3
}