; Function Attrs: mustprogress nofree norecurse nosync nounwind willreturn memory(argmem: read) uwtable
define dso_local noundef zeroext i1 @_ZN4node10contextify17ContextifyContext19IsStillInitializingEPKS1_(ptr noundef readonly %ctx) local_unnamed_addr #8 align 2 {
entry:
  %cmp = icmp eq ptr %ctx, null
  br i1 %cmp, label %lor.end, label %lor.rhs

lor.rhs:                                          ; preds = %entry
  %context_ = getelementptr inbounds i8, ptr %ctx, i64 32
  %0 = load ptr, ptr %context_, align 8
  %cmp.i = icmp eq ptr %0, null
  br label %lor.end

lor.end:                                          ; preds = %lor.rhs, %entry
  %1 = phi i1 [ true, %entry ], [ %cmp.i, %lor.rhs ]
  ret i1 %1
}